; Function Attrs: mustprogress nofree norecurse nosync nounwind willreturn memory(readwrite, inaccessiblemem: none) uwtable
define void @_ZN5draco23TriangleSoupMeshBuilder20SetAttributeUniqueIdEij(ptr noundef nonnull readonly align 8 captures(none) dereferenceable(32) %0, i32 noundef %1, i32 noundef %2) local_unnamed_addr #8 align 2 {
  %4 = getelementptr inbounds nuw i8, ptr %0, i64 24
  %5 = load ptr, ptr %4, align 8, !tbaa !3
  %6 = getelementptr inbounds nuw i8, ptr %5, i64 16
  %7 = sext i32 %1 to i64
  %8 = load ptr, ptr %6, align 8, !tbaa !35
  %9 = getelementptr inbounds nuw %"class.std::unique_ptr.54", ptr %8, i64 %7
  %10 = load ptr, ptr %9, align 8, !tbaa !36
  %11 = getelementptr inbounds nuw i8, ptr %10, i64 60
  store i32 %2, ptr %11, align 4, !tbaa !62
  ret void
}